target datalayout = "e-m:e-p270:32:32-p271:32:32-p272:64:64-i64:64-i128:128-f80:128-n8:16:32:64-S128"
target triple = "x86_64-pc-linux-gnu"

%struct.ossl_ex_data_global_st = type { ptr, [18 x %struct.ex_callbacks_st] }
%struct.ex_callbacks_st = type { ptr }
%struct.ex_callback_st = type { i64, ptr, i32, ptr, ptr, ptr }
%struct.crypto_ex_data_st = type { ptr, ptr }

@.str = private unnamed_addr constant [28 x i8] c"../openssl/crypto/ex_data.c\00", align 1
@__func__.get_and_lock = private unnamed_addr constant [13 x i8] c"get_and_lock\00", align 1

; Function Attrs: inlinehint nounwind uwtable
define internal ptr @ossl_check_const_void_sk_type(ptr noundef %0) #3 {
  %2 = alloca ptr, align 8
  store ptr %0, ptr %2, align 8, !tbaa !46
  %3 = load ptr, ptr %2, align 8, !tbaa !46
  ret ptr %3
}

; Function Attrs: nounwind uwtable
define ptr @CRYPTO_get_ex_data(ptr noundef %0, i32 noundef %1) #0 {
  %3 = alloca ptr, align 8
  %4 = alloca ptr, align 8
  %5 = alloca i32, align 4
  store ptr %0, ptr %4, align 8, !tbaa !30
  store i32 %1, ptr %5, align 4, !tbaa !12
  %6 = load ptr, ptr %4, align 8, !tbaa !30
  %7 = getelementptr inbounds nuw %struct.crypto_ex_data_st, ptr %6, i32 0, i32 1
  %8 = load ptr, ptr %7, align 8, !tbaa !41
  %9 = icmp eq ptr %8, null
  br i1 %9, label %18, label %10

10:                                               ; preds = %2
  %11 = load i32, ptr %5, align 4, !tbaa !12
  %12 = load ptr, ptr %4, align 8, !tbaa !30
  %13 = getelementptr inbounds nuw %struct.crypto_ex_data_st, ptr %12, i32 0, i32 1
  %14 = load ptr, ptr %13, align 8, !tbaa !41
  %15 = call ptr @ossl_check_const_void_sk_type(ptr noundef %14)
  %16 = call i32 @OPENSSL_sk_num(ptr noundef %15)
  %17 = icmp sge i32 %11, %16
  br i1 %17, label %18, label %19

18:                                               ; preds = %10, %2
  store ptr null, ptr %3, align 8
  br label %26

19:                                               ; preds = %10
  %20 = load ptr, ptr %4, align 8, !tbaa !30
  %21 = getelementptr inbounds nuw %struct.crypto_ex_data_st, ptr %20, i32 0, i32 1
  %22 = load ptr, ptr %21, align 8, !tbaa !41
  %23 = call ptr @ossl_check_const_void_sk_type(ptr noundef %22)
  %24 = load i32, ptr %5, align 4, !tbaa !12
  %25 = call ptr @OPENSSL_sk_value(ptr noundef %23, i32 noundef %24)
  store ptr %25, ptr %3, align 8
  br label %26

26:                                               ; preds = %19, %18
  %27 = load ptr, ptr %3, align 8
  ret ptr %27
}

; Function Attrs: inlinehint nounwind uwtable
define internal ptr @sk_EX_CALLBACK_value(ptr noundef %0, i32 noundef %1) #3 {
  %3 = alloca ptr, align 8
  %4 = alloca i32, align 4
  store ptr %0, ptr %3, align 8, !tbaa !21
  store i32 %1, ptr %4, align 4, !tbaa !12
  %5 = load ptr, ptr %3, align 8, !tbaa !21
  %6 = load i32, ptr %4, align 4, !tbaa !12
  %7 = call ptr @OPENSSL_sk_value(ptr noundef %5, i32 noundef %6)
  ret ptr %7
}

; Function Attrs: inlinehint nounwind uwtable
define internal i32 @sk_EX_CALLBACK_num(ptr noundef %0) #3 {
  %2 = alloca ptr, align 8
  store ptr %0, ptr %2, align 8, !tbaa !21
  %3 = load ptr, ptr %2, align 8, !tbaa !21
  %4 = call i32 @OPENSSL_sk_num(ptr noundef %3)
  ret i32 %4
}

; Function Attrs: nounwind uwtable
define internal ptr @get_and_lock(ptr noundef %0, i32 noundef %1, i32 noundef %2) #0 {
  %4 = alloca ptr, align 8
  %5 = alloca ptr, align 8
  %6 = alloca i32, align 4
  %7 = alloca i32, align 4
  %8 = alloca ptr, align 8
  %9 = alloca i32, align 4
  store ptr %0, ptr %5, align 8, !tbaa !8
  store i32 %1, ptr %6, align 4, !tbaa !12
  store i32 %2, ptr %7, align 4, !tbaa !12
  call void @llvm.lifetime.start.p0(i64 8, ptr %8) #4
  %10 = load i32, ptr %6, align 4, !tbaa !12
  %11 = icmp slt i32 %10, 0
  br i1 %11, label %15, label %12

12:                                               ; preds = %3
  %13 = load i32, ptr %6, align 4, !tbaa !12
  %14 = icmp sge i32 %13, 18
  br i1 %14, label %15, label %16

15:                                               ; preds = %12, %3
  call void @ERR_new()
  call void @ERR_set_debug(ptr noundef @.str, i32 noundef 37, ptr noundef @__func__.get_and_lock)
  call void (i32, i32, ptr, ...) @ERR_set_error(i32 noundef 15, i32 noundef 524550, ptr noundef null)
  store ptr null, ptr %4, align 8
  store i32 1, ptr %9, align 4
  br label %48

16:                                               ; preds = %12
  %17 = load ptr, ptr %5, align 8, !tbaa !8
  %18 = getelementptr inbounds nuw %struct.ossl_ex_data_global_st, ptr %17, i32 0, i32 0
  %19 = load ptr, ptr %18, align 8, !tbaa !10
  %20 = icmp eq ptr %19, null
  br i1 %20, label %21, label %22

21:                                               ; preds = %16
  store ptr null, ptr %4, align 8
  store i32 1, ptr %9, align 4
  br label %48

22:                                               ; preds = %16
  %23 = load i32, ptr %7, align 4, !tbaa !12
  %24 = icmp ne i32 %23, 0
  br i1 %24, label %25, label %33

25:                                               ; preds = %22
  %26 = load ptr, ptr %5, align 8, !tbaa !8
  %27 = getelementptr inbounds nuw %struct.ossl_ex_data_global_st, ptr %26, i32 0, i32 0
  %28 = load ptr, ptr %27, align 8, !tbaa !10
  %29 = call i32 @CRYPTO_THREAD_read_lock(ptr noundef %28)
  %30 = icmp ne i32 %29, 0
  br i1 %30, label %32, label %31

31:                                               ; preds = %25
  store ptr null, ptr %4, align 8
  store i32 1, ptr %9, align 4
  br label %48

32:                                               ; preds = %25
  br label %41

33:                                               ; preds = %22
  %34 = load ptr, ptr %5, align 8, !tbaa !8
  %35 = getelementptr inbounds nuw %struct.ossl_ex_data_global_st, ptr %34, i32 0, i32 0
  %36 = load ptr, ptr %35, align 8, !tbaa !10
  %37 = call i32 @CRYPTO_THREAD_write_lock(ptr noundef %36)
  %38 = icmp ne i32 %37, 0
  br i1 %38, label %40, label %39

39:                                               ; preds = %33
  store ptr null, ptr %4, align 8
  store i32 1, ptr %9, align 4
  br label %48

40:                                               ; preds = %33
  br label %41

41:                                               ; preds = %40, %32
  %42 = load ptr, ptr %5, align 8, !tbaa !8
  %43 = getelementptr inbounds nuw %struct.ossl_ex_data_global_st, ptr %42, i32 0, i32 1
  %44 = load i32, ptr %6, align 4, !tbaa !12
  %45 = sext i32 %44 to i64
  %46 = getelementptr inbounds [18 x %struct.ex_callbacks_st], ptr %43, i64 0, i64 %45
  store ptr %46, ptr %8, align 8, !tbaa !14
  %47 = load ptr, ptr %8, align 8, !tbaa !14
  store ptr %47, ptr %4, align 8
  store i32 1, ptr %9, align 4
  br label %48

48:                                               ; preds = %41, %39, %31, %21, %15
  call void @llvm.lifetime.end.p0(i64 8, ptr %8) #4
  %49 = load ptr, ptr %4, align 8
  ret ptr %49
}

; Function Attrs: nounwind uwtable
define i32 @ossl_crypto_new_ex_data_ex(ptr noundef %0, i32 noundef %1, ptr noundef %2, ptr noundef %3) #0 {
  %5 = alloca i32, align 4
  %6 = alloca ptr, align 8
  %7 = alloca i32, align 4
  %8 = alloca ptr, align 8
  %9 = alloca ptr, align 8
  %10 = alloca i32, align 4
  %11 = alloca i32, align 4
  %12 = alloca ptr, align 8
  %13 = alloca ptr, align 8
  %14 = alloca [10 x ptr], align 16
  %15 = alloca ptr, align 8
  %16 = alloca ptr, align 8
  %17 = alloca i32, align 4
  store ptr %0, ptr %6, align 8, !tbaa !3
  store i32 %1, ptr %7, align 4, !tbaa !12
  store ptr %2, ptr %8, align 8, !tbaa !22
  store ptr %3, ptr %9, align 8, !tbaa !30
  call void @llvm.lifetime.start.p0(i64 4, ptr %10) #4
  call void @llvm.lifetime.start.p0(i64 4, ptr %11) #4
  call void @llvm.lifetime.start.p0(i64 8, ptr %12) #4
  call void @llvm.lifetime.start.p0(i64 8, ptr %13) #4
  store ptr null, ptr %13, align 8, !tbaa !36
  call void @llvm.lifetime.start.p0(i64 80, ptr %14) #4
  call void @llvm.lifetime.start.p0(i64 8, ptr %15) #4
  call void @llvm.lifetime.start.p0(i64 8, ptr %16) #4
  %18 = load ptr, ptr %6, align 8, !tbaa !3
  %19 = call ptr @ossl_lib_ctx_get_ex_data_global(ptr noundef %18)
  store ptr %19, ptr %16, align 8, !tbaa !8
  %20 = load ptr, ptr %16, align 8, !tbaa !8
  %21 = icmp eq ptr %20, null
  br i1 %21, label %22, label %23

22:                                               ; preds = %4
  store i32 0, ptr %5, align 4
  store i32 1, ptr %17, align 4
  br label %147

23:                                               ; preds = %4
  %24 = load ptr, ptr %16, align 8, !tbaa !8
  %25 = load i32, ptr %7, align 4, !tbaa !12
  %26 = call ptr @get_and_lock(ptr noundef %24, i32 noundef %25, i32 noundef 1)
  store ptr %26, ptr %15, align 8, !tbaa !14
  %27 = load ptr, ptr %15, align 8, !tbaa !14
  %28 = icmp eq ptr %27, null
  br i1 %28, label %29, label %30

29:                                               ; preds = %23
  store i32 0, ptr %5, align 4
  store i32 1, ptr %17, align 4
  br label %147

30:                                               ; preds = %23
  %31 = load ptr, ptr %6, align 8, !tbaa !3
  %32 = load ptr, ptr %9, align 8, !tbaa !30
  %33 = getelementptr inbounds nuw %struct.crypto_ex_data_st, ptr %32, i32 0, i32 0
  store ptr %31, ptr %33, align 8, !tbaa !38
  %34 = load ptr, ptr %9, align 8, !tbaa !30
  %35 = getelementptr inbounds nuw %struct.crypto_ex_data_st, ptr %34, i32 0, i32 1
  store ptr null, ptr %35, align 8, !tbaa !41
  %36 = load ptr, ptr %15, align 8, !tbaa !14
  %37 = getelementptr inbounds nuw %struct.ex_callbacks_st, ptr %36, i32 0, i32 0
  %38 = load ptr, ptr %37, align 8, !tbaa !16
  %39 = call i32 @sk_EX_CALLBACK_num(ptr noundef %38)
  store i32 %39, ptr %10, align 4, !tbaa !12
  %40 = load i32, ptr %10, align 4, !tbaa !12
  %41 = icmp sgt i32 %40, 0
  br i1 %41, label %42, label %75

42:                                               ; preds = %30
  %43 = load i32, ptr %10, align 4, !tbaa !12
  %44 = icmp slt i32 %43, 10
  br i1 %44, label %45, label %47

45:                                               ; preds = %42
  %46 = getelementptr inbounds [10 x ptr], ptr %14, i64 0, i64 0
  store ptr %46, ptr %13, align 8, !tbaa !36
  br label %52

47:                                               ; preds = %42
  %48 = load i32, ptr %10, align 4, !tbaa !12
  %49 = sext i32 %48 to i64
  %50 = mul i64 8, %49
  %51 = call noalias ptr @CRYPTO_malloc(i64 noundef %50, ptr noundef @.str, i32 noundef 243)
  store ptr %51, ptr %13, align 8, !tbaa !36
  br label %52

52:                                               ; preds = %47, %45
  %53 = load ptr, ptr %13, align 8, !tbaa !36
  %54 = icmp ne ptr %53, null
  br i1 %54, label %55, label %74

55:                                               ; preds = %52
  store i32 0, ptr %11, align 4, !tbaa !12
  br label %56

56:                                               ; preds = %70, %55
  %57 = load i32, ptr %11, align 4, !tbaa !12
  %58 = load i32, ptr %10, align 4, !tbaa !12
  %59 = icmp slt i32 %57, %58
  br i1 %59, label %60, label %73

60:                                               ; preds = %56
  %61 = load ptr, ptr %15, align 8, !tbaa !14
  %62 = getelementptr inbounds nuw %struct.ex_callbacks_st, ptr %61, i32 0, i32 0
  %63 = load ptr, ptr %62, align 8, !tbaa !16
  %64 = load i32, ptr %11, align 4, !tbaa !12
  %65 = call ptr @sk_EX_CALLBACK_value(ptr noundef %63, i32 noundef %64)
  %66 = load ptr, ptr %13, align 8, !tbaa !36
  %67 = load i32, ptr %11, align 4, !tbaa !12
  %68 = sext i32 %67 to i64
  %69 = getelementptr inbounds ptr, ptr %66, i64 %68
  store ptr %65, ptr %69, align 8, !tbaa !23
  br label %70

70:                                               ; preds = %60
  %71 = load i32, ptr %11, align 4, !tbaa !12
  %72 = add nsw i32 %71, 1
  store i32 %72, ptr %11, align 4, !tbaa !12
  br label %56, !llvm.loop !42

73:                                               ; preds = %56
  br label %74

74:                                               ; preds = %73, %52
  br label %75

75:                                               ; preds = %74, %30
  %76 = load ptr, ptr %16, align 8, !tbaa !8
  %77 = getelementptr inbounds nuw %struct.ossl_ex_data_global_st, ptr %76, i32 0, i32 0
  %78 = load ptr, ptr %77, align 8, !tbaa !10
  %79 = call i32 @CRYPTO_THREAD_unlock(ptr noundef %78)
  %80 = load i32, ptr %10, align 4, !tbaa !12
  %81 = icmp sgt i32 %80, 0
  br i1 %81, label %82, label %86

82:                                               ; preds = %75
  %83 = load ptr, ptr %13, align 8, !tbaa !36
  %84 = icmp eq ptr %83, null
  br i1 %84, label %85, label %86

85:                                               ; preds = %82
  store i32 0, ptr %5, align 4
  store i32 1, ptr %17, align 4
  br label %147

86:                                               ; preds = %82, %75
  store i32 0, ptr %11, align 4, !tbaa !12
  br label %87

87:                                               ; preds = %137, %86
  %88 = load i32, ptr %11, align 4, !tbaa !12
  %89 = load i32, ptr %10, align 4, !tbaa !12
  %90 = icmp slt i32 %88, %89
  br i1 %90, label %91, label %140

91:                                               ; preds = %87
  %92 = load ptr, ptr %13, align 8, !tbaa !36
  %93 = load i32, ptr %11, align 4, !tbaa !12
  %94 = sext i32 %93 to i64
  %95 = getelementptr inbounds ptr, ptr %92, i64 %94
  %96 = load ptr, ptr %95, align 8, !tbaa !23
  %97 = icmp ne ptr %96, null
  br i1 %97, label %98, label %136

98:                                               ; preds = %91
  %99 = load ptr, ptr %13, align 8, !tbaa !36
  %100 = load i32, ptr %11, align 4, !tbaa !12
  %101 = sext i32 %100 to i64
  %102 = getelementptr inbounds ptr, ptr %99, i64 %101
  %103 = load ptr, ptr %102, align 8, !tbaa !23
  %104 = getelementptr inbounds nuw %struct.ex_callback_st, ptr %103, i32 0, i32 3
  %105 = load ptr, ptr %104, align 8, !tbaa !25
  %106 = icmp ne ptr %105, null
  br i1 %106, label %107, label %136

107:                                              ; preds = %98
  %108 = load ptr, ptr %9, align 8, !tbaa !30
  %109 = load i32, ptr %11, align 4, !tbaa !12
  %110 = call ptr @CRYPTO_get_ex_data(ptr noundef %108, i32 noundef %109)
  store ptr %110, ptr %12, align 8, !tbaa !22
  %111 = load ptr, ptr %13, align 8, !tbaa !36
  %112 = load i32, ptr %11, align 4, !tbaa !12
  %113 = sext i32 %112 to i64
  %114 = getelementptr inbounds ptr, ptr %111, i64 %113
  %115 = load ptr, ptr %114, align 8, !tbaa !23
  %116 = getelementptr inbounds nuw %struct.ex_callback_st, ptr %115, i32 0, i32 3
  %117 = load ptr, ptr %116, align 8, !tbaa !25
  %118 = load ptr, ptr %8, align 8, !tbaa !22
  %119 = load ptr, ptr %12, align 8, !tbaa !22
  %120 = load ptr, ptr %9, align 8, !tbaa !30
  %121 = load i32, ptr %11, align 4, !tbaa !12
  %122 = load ptr, ptr %13, align 8, !tbaa !36
  %123 = load i32, ptr %11, align 4, !tbaa !12
  %124 = sext i32 %123 to i64
  %125 = getelementptr inbounds ptr, ptr %122, i64 %124
  %126 = load ptr, ptr %125, align 8, !tbaa !23
  %127 = getelementptr inbounds nuw %struct.ex_callback_st, ptr %126, i32 0, i32 0
  %128 = load i64, ptr %127, align 8, !tbaa !33
  %129 = load ptr, ptr %13, align 8, !tbaa !36
  %130 = load i32, ptr %11, align 4, !tbaa !12
  %131 = sext i32 %130 to i64
  %132 = getelementptr inbounds ptr, ptr %129, i64 %131
  %133 = load ptr, ptr %132, align 8, !tbaa !23
  %134 = getelementptr inbounds nuw %struct.ex_callback_st, ptr %133, i32 0, i32 1
  %135 = load ptr, ptr %134, align 8, !tbaa !34
  call void %117(ptr noundef %118, ptr noundef %119, ptr noundef %120, i32 noundef %121, i64 noundef %128, ptr noundef %135)
  br label %136

136:                                              ; preds = %107, %98, %91
  br label %137

137:                                              ; preds = %136
  %138 = load i32, ptr %11, align 4, !tbaa !12
  %139 = add nsw i32 %138, 1
  store i32 %139, ptr %11, align 4, !tbaa !12
  br label %87, !llvm.loop !43

140:                                              ; preds = %87
  %141 = load ptr, ptr %13, align 8, !tbaa !36
  %142 = getelementptr inbounds [10 x ptr], ptr %14, i64 0, i64 0
  %143 = icmp ne ptr %141, %142
  br i1 %143, label %144, label %146

144:                                              ; preds = %140
  %145 = load ptr, ptr %13, align 8, !tbaa !36
  call void @CRYPTO_free(ptr noundef %145, ptr noundef @.str, i32 noundef 260)
  br label %146

146:                                              ; preds = %144, %140
  store i32 1, ptr %5, align 4
  store i32 1, ptr %17, align 4
  br label %147

147:                                              ; preds = %146, %85, %29, %22
  call void @llvm.lifetime.end.p0(i64 8, ptr %16) #4
  call void @llvm.lifetime.end.p0(i64 8, ptr %15) #4
  call void @llvm.lifetime.end.p0(i64 80, ptr %14) #4
  call void @llvm.lifetime.end.p0(i64 8, ptr %13) #4
  call void @llvm.lifetime.end.p0(i64 8, ptr %12) #4
  call void @llvm.lifetime.end.p0(i64 4, ptr %11) #4
  call void @llvm.lifetime.end.p0(i64 4, ptr %10) #4
  %148 = load i32, ptr %5, align 4
  ret i32 %148
}