; Function Attrs: nounwind uwtable
define range(i32 0, 2) i32 @ossl_crypto_new_ex_data_ex(ptr noundef %0, i32 noundef %1, ptr noundef %2, ptr noundef %3) local_unnamed_addr #0 {
  %5 = alloca [10 x ptr], align 16
  call void @llvm.lifetime.start.p0(i64 80, ptr nonnull %5) #9
  %6 = tail call ptr @ossl_lib_ctx_get_ex_data_global(ptr noundef %0) #9
  %7 = icmp eq ptr %6, null
  br i1 %7, label %get_and_lock.exit.thread, label %8

8:                                                ; preds = %4
  %or.cond.i = icmp ugt i32 %1, 17
  br i1 %or.cond.i, label %9, label %10

9:                                                ; preds = %8
  tail call void @ERR_new() #9
  tail call void @ERR_set_debug(ptr noundef nonnull @.str, i32 noundef 37, ptr noundef nonnull @__func__.get_and_lock) #9
  tail call void (i32, i32, ptr, ...) @ERR_set_error(i32 noundef 15, i32 noundef 524550, ptr noundef null) #9
  br label %get_and_lock.exit.thread

10:                                               ; preds = %8
  %11 = load ptr, ptr %6, align 8, !tbaa !3
  %12 = icmp eq ptr %11, null
  br i1 %12, label %get_and_lock.exit.thread, label %13

13:                                               ; preds = %10
  %14 = tail call i32 @CRYPTO_THREAD_read_lock(ptr noundef nonnull %11) #9
  %.not13.i = icmp eq i32 %14, 0
  br i1 %.not13.i, label %get_and_lock.exit.thread, label %15

15:                                               ; preds = %13
  %16 = getelementptr inbounds nuw i8, ptr %6, i64 8
  %17 = zext nneg i32 %1 to i64
  %18 = getelementptr inbounds nuw [18 x %struct.ex_callbacks_st], ptr %16, i64 0, i64 %17
  store ptr %0, ptr %3, align 8, !tbaa !22
  %19 = getelementptr inbounds nuw i8, ptr %3, i64 8
  store ptr null, ptr %19, align 8, !tbaa !26
  %20 = load ptr, ptr %18, align 8, !tbaa !8
  %21 = tail call i32 @OPENSSL_sk_num(ptr noundef %20) #9
  %22 = icmp sgt i32 %21, 0
  br i1 %22, label %23, label %.loopexit

23:                                               ; preds = %15
  %24 = icmp samesign ult i32 %21, 10
  br i1 %24, label %.lr.ph.preheader, label %25

25:                                               ; preds = %23
  %26 = zext nneg i32 %21 to i64
  %27 = shl nuw nsw i64 %26, 3
  %28 = tail call noalias ptr @CRYPTO_malloc(i64 noundef %27, ptr noundef nonnull @.str, i32 noundef 243) #9
  %.not = icmp eq ptr %28, null
  br i1 %.not, label %.loopexit, label %.lr.ph.preheader

.lr.ph.preheader:                                 ; preds = %23, %25
  %.14769 = phi ptr [ %28, %25 ], [ %5, %23 ]
  %wide.trip.count = zext nneg i32 %21 to i64
  br label %.lr.ph

.lr.ph:                                           ; preds = %.lr.ph.preheader, %.lr.ph
  %indvars.iv = phi i64 [ 0, %.lr.ph.preheader ], [ %indvars.iv.next, %.lr.ph ]
  %29 = load ptr, ptr %18, align 8, !tbaa !8
  %30 = trunc nuw nsw i64 %indvars.iv to i32
  %31 = tail call ptr @OPENSSL_sk_value(ptr noundef %29, i32 noundef %30) #9
  %32 = getelementptr inbounds nuw ptr, ptr %.14769, i64 %indvars.iv
  store ptr %31, ptr %32, align 8, !tbaa !27
  %indvars.iv.next = add nuw nsw i64 %indvars.iv, 1
  %exitcond.not = icmp eq i64 %indvars.iv.next, %wide.trip.count
  br i1 %exitcond.not, label %.loopexit, label %.lr.ph, !llvm.loop !29

.loopexit:                                        ; preds = %.lr.ph, %25, %15
  %.046 = phi ptr [ null, %25 ], [ null, %15 ], [ %.14769, %.lr.ph ]
  %33 = load ptr, ptr %6, align 8, !tbaa !3
  %34 = tail call i32 @CRYPTO_THREAD_unlock(ptr noundef %33) #9
  %35 = icmp eq ptr %.046, null
  %or.cond = and i1 %22, %35
  br i1 %or.cond, label %get_and_lock.exit.thread, label %.preheader

.preheader:                                       ; preds = %.loopexit
  br i1 %22, label %.lr.ph60.preheader, label %._crit_edge

.lr.ph60.preheader:                               ; preds = %.preheader
  %wide.trip.count65 = zext nneg i32 %21 to i64
  br label %.lr.ph60

.lr.ph60:                                         ; preds = %.lr.ph60.preheader, %58
  %indvars.iv62 = phi i64 [ 0, %.lr.ph60.preheader ], [ %indvars.iv.next63, %58 ]
  %36 = getelementptr inbounds nuw ptr, ptr %.046, i64 %indvars.iv62
  %37 = load ptr, ptr %36, align 8, !tbaa !27
  %.not53 = icmp eq ptr %37, null
  br i1 %.not53, label %58, label %38

38:                                               ; preds = %.lr.ph60
  %39 = getelementptr inbounds nuw i8, ptr %37, i64 24
  %40 = load ptr, ptr %39, align 8, !tbaa !13
  %.not54 = icmp eq ptr %40, null
  br i1 %.not54, label %58, label %41

41:                                               ; preds = %38
  %42 = load ptr, ptr %19, align 8, !tbaa !26
  %43 = icmp eq ptr %42, null
  br i1 %43, label %CRYPTO_get_ex_data.exit, label %44

44:                                               ; preds = %41
  %45 = call i32 @OPENSSL_sk_num(ptr noundef nonnull %42) #9
  %46 = sext i32 %45 to i64
  %.not.i = icmp slt i64 %indvars.iv62, %46
  br i1 %.not.i, label %47, label %CRYPTO_get_ex_data.exit

47:                                               ; preds = %44
  %48 = load ptr, ptr %19, align 8, !tbaa !26
  %49 = trunc nuw nsw i64 %indvars.iv62 to i32
  %50 = call ptr @OPENSSL_sk_value(ptr noundef %48, i32 noundef %49) #9
  br label %CRYPTO_get_ex_data.exit

CRYPTO_get_ex_data.exit:                          ; preds = %41, %44, %47
  %.0.i55 = phi ptr [ %50, %47 ], [ null, %44 ], [ null, %41 ]
  %51 = load ptr, ptr %36, align 8, !tbaa !27
  %52 = getelementptr inbounds nuw i8, ptr %51, i64 24
  %53 = load ptr, ptr %52, align 8, !tbaa !13
  %54 = load i64, ptr %51, align 8, !tbaa !19
  %55 = getelementptr inbounds nuw i8, ptr %51, i64 8
  %56 = load ptr, ptr %55, align 8, !tbaa !20
  %57 = trunc nuw nsw i64 %indvars.iv62 to i32
  call void %53(ptr noundef %2, ptr noundef %.0.i55, ptr noundef nonnull %3, i32 noundef %57, i64 noundef %54, ptr noundef %56) #9
  br label %58

58:                                               ; preds = %.lr.ph60, %38, %CRYPTO_get_ex_data.exit
  %indvars.iv.next63 = add nuw nsw i64 %indvars.iv62, 1
  %exitcond66.not = icmp eq i64 %indvars.iv.next63, %wide.trip.count65
  br i1 %exitcond66.not, label %._crit_edge, label %.lr.ph60, !llvm.loop !30

._crit_edge:                                      ; preds = %58, %.preheader
  %.not52 = icmp eq ptr %.046, %5
  br i1 %.not52, label %get_and_lock.exit.thread, label %59

59:                                               ; preds = %._crit_edge
  call void @CRYPTO_free(ptr noundef %.046, ptr noundef nonnull @.str, i32 noundef 260) #9
  br label %get_and_lock.exit.thread

get_and_lock.exit.thread:                         ; preds = %13, %10, %9, %._crit_edge, %59, %.loopexit, %4
  %.0 = phi i32 [ 0, %4 ], [ 0, %.loopexit ], [ 1, %59 ], [ 1, %._crit_edge ], [ 0, %9 ], [ 0, %10 ], [ 0, %13 ]
  call void @llvm.lifetime.end.p0(i64 80, ptr nonnull %5) #9
  ret i32 %.0
}